target datalayout = "e-m:e-p270:32:32-p271:32:32-p272:64:64-i64:64-i128:128-f80:128-n8:16:32:64-S128"
target triple = "x86_64-pc-linux-gnu"

%struct.__sigset_t = type { [16 x i64] }

@pthread_create_fptr = internal global ptr null, align 8
@.str.3 = private unnamed_addr constant [93 x i8] c"<jemalloc>: background thread creation failed (%d), and signal mask restoration failed (%d)\0A\00", align 1
@je_opt_abort = external global i8, align 1

; Function Attrs: nounwind uwtable
define internal void @pthread_create_wrapper_init() #0 {
  ret void
}

; Function Attrs: nounwind uwtable
define hidden i32 @je_pthread_create_wrapper(ptr noalias noundef %0, ptr noundef %1, ptr noundef %2, ptr noalias noundef %3) #0 {
  %5 = alloca ptr, align 8
  %6 = alloca ptr, align 8
  %7 = alloca ptr, align 8
  %8 = alloca ptr, align 8
  store ptr %0, ptr %5, align 8, !tbaa !4
  store ptr %1, ptr %6, align 8, !tbaa !9
  store ptr %2, ptr %7, align 8, !tbaa !11
  store ptr %3, ptr %8, align 8, !tbaa !11
  call void @pthread_create_wrapper_init()
  %9 = load ptr, ptr @pthread_create_fptr, align 8, !tbaa !11
  %10 = load ptr, ptr %5, align 8, !tbaa !4
  %11 = load ptr, ptr %6, align 8, !tbaa !9
  %12 = load ptr, ptr %7, align 8, !tbaa !11
  %13 = load ptr, ptr %8, align 8, !tbaa !11
  %14 = call i32 %9(ptr noundef %10, ptr noundef %11, ptr noundef %12, ptr noundef %13)
  ret i32 %14
}

; Function Attrs: nounwind uwtable
define internal i32 @background_thread_create_signals_masked(ptr noundef %0, ptr noundef %1, ptr noundef %2, ptr noundef %3) #0 {
  %5 = alloca i32, align 4
  %6 = alloca ptr, align 8
  %7 = alloca ptr, align 8
  %8 = alloca ptr, align 8
  %9 = alloca ptr, align 8
  %10 = alloca %struct.__sigset_t, align 8
  %11 = alloca %struct.__sigset_t, align 8
  %12 = alloca i32, align 4
  %13 = alloca i32, align 4
  %14 = alloca i32, align 4
  %15 = alloca i32, align 4
  store ptr %0, ptr %6, align 8, !tbaa !4
  store ptr %1, ptr %7, align 8, !tbaa !9
  store ptr %2, ptr %8, align 8, !tbaa !11
  store ptr %3, ptr %9, align 8, !tbaa !11
  call void @llvm.lifetime.start.p0(i64 128, ptr %10) #12
  %16 = call i32 @sigfillset(ptr noundef %10) #12
  call void @llvm.lifetime.start.p0(i64 128, ptr %11) #12
  call void @llvm.lifetime.start.p0(i64 4, ptr %12) #12
  %17 = call i32 @pthread_sigmask(i32 noundef 2, ptr noundef %10, ptr noundef %11) #12
  store i32 %17, ptr %12, align 4, !tbaa !14
  %18 = load i32, ptr %12, align 4, !tbaa !14
  %19 = icmp ne i32 %18, 0
  br i1 %19, label %20, label %22

20:                                               ; preds = %4
  %21 = load i32, ptr %12, align 4, !tbaa !14
  store i32 %21, ptr %5, align 4
  store i32 1, ptr %13, align 4
  br label %40

22:                                               ; preds = %4
  call void @llvm.lifetime.start.p0(i64 4, ptr %14) #12
  %23 = load ptr, ptr %6, align 8, !tbaa !4
  %24 = load ptr, ptr %7, align 8, !tbaa !9
  %25 = load ptr, ptr %8, align 8, !tbaa !11
  %26 = load ptr, ptr %9, align 8, !tbaa !11
  %27 = call i32 @je_pthread_create_wrapper(ptr noundef %23, ptr noundef %24, ptr noundef %25, ptr noundef %26)
  store i32 %27, ptr %14, align 4, !tbaa !14
  call void @llvm.lifetime.start.p0(i64 4, ptr %15) #12
  %28 = call i32 @pthread_sigmask(i32 noundef 2, ptr noundef %11, ptr noundef null) #12
  store i32 %28, ptr %15, align 4, !tbaa !14
  %29 = load i32, ptr %15, align 4, !tbaa !14
  %30 = icmp ne i32 %29, 0
  br i1 %30, label %31, label %38

31:                                               ; preds = %22
  %32 = load i32, ptr %14, align 4, !tbaa !14
  %33 = load i32, ptr %15, align 4, !tbaa !14
  call void (ptr, ...) @je_malloc_printf(ptr noundef @.str.3, i32 noundef %32, i32 noundef %33)
  %34 = load i8, ptr @je_opt_abort, align 1, !tbaa !16, !range !18, !noundef !19
  %35 = trunc i8 %34 to i1
  br i1 %35, label %36, label %37

36:                                               ; preds = %31
  call void @abort() #13
  unreachable

37:                                               ; preds = %31
  br label %38

38:                                               ; preds = %37, %22
  %39 = load i32, ptr %14, align 4, !tbaa !14
  store i32 %39, ptr %5, align 4
  store i32 1, ptr %13, align 4
  call void @llvm.lifetime.end.p0(i64 4, ptr %15) #12
  call void @llvm.lifetime.end.p0(i64 4, ptr %14) #12
  br label %40

40:                                               ; preds = %38, %20
  call void @llvm.lifetime.end.p0(i64 4, ptr %12) #12
  call void @llvm.lifetime.end.p0(i64 128, ptr %11) #12
  call void @llvm.lifetime.end.p0(i64 128, ptr %10) #12
  %41 = load i32, ptr %5, align 4
  ret i32 %41
}